; ModuleID = '63/1112.c'
source_filename = "63/1112.c"
target datalayout = "e-m:e-p270:32:32-p271:32:32-p272:64:64-i64:64-f80:128-n8:16:32:64-S128"
target triple = "x86_64-pc-linux-gnu"

@.str = private unnamed_addr constant [5 x i8] c"%d%d\00", align 1
@.str.1 = private unnamed_addr constant [3 x i8] c"%d\00", align 1
@.str.2 = private unnamed_addr constant [4 x i8] c"%d \00", align 1
@.str.3 = private unnamed_addr constant [4 x i8] c"%d\0A\00", align 1

; Function Attrs: noinline nounwind uwtable
define dso_local i32 @main() #0 {
  %1 = alloca i32, align 4
  %2 = alloca [200 x [200 x i32]], align 16
  %3 = alloca [200 x [200 x i32]], align 16
  %4 = alloca [400 x [400 x i32]], align 16
  %5 = alloca i32, align 4
  %6 = alloca i32, align 4
  %7 = alloca i32, align 4
  %8 = alloca i32, align 4
  %9 = alloca i32, align 4
  %10 = alloca i32, align 4
  %11 = alloca i32, align 4
  %12 = alloca i32, align 4
  %13 = alloca i32, align 4
  %14 = alloca i32, align 4
  store i32 0, i32* %1, align 4
  %15 = bitcast [400 x [400 x i32]]* %4 to i8*
  call void @llvm.memset.p0i8.i64(i8* align 16 %15, i8 0, i64 640000, i1 false)
  %16 = call i32 (i8*, ...) @__isoc99_scanf(i8* getelementptr inbounds ([5 x i8], [5 x i8]* @.str, i64 0, i64 0), i32* %5, i32* %7)
  store i32 0, i32* %11, align 4
  br label %17

17:                                               ; preds = %38, %0
  %18 = load i32, i32* %11, align 4
  %19 = load i32, i32* %5, align 4
  %20 = icmp slt i32 %18, %19
  br i1 %20, label %21, label %41

21:                                               ; preds = %17
  store i32 0, i32* %12, align 4
  br label %22

22:                                               ; preds = %34, %21
  %23 = load i32, i32* %12, align 4
  %24 = load i32, i32* %7, align 4
  %25 = icmp slt i32 %23, %24
  br i1 %25, label %26, label %37

26:                                               ; preds = %22
  %27 = load i32, i32* %11, align 4
  %28 = sext i32 %27 to i64
  %29 = getelementptr inbounds [200 x [200 x i32]], [200 x [200 x i32]]* %2, i64 0, i64 %28
  %30 = load i32, i32* %12, align 4
  %31 = sext i32 %30 to i64
  %32 = getelementptr inbounds [200 x i32], [200 x i32]* %29, i64 0, i64 %31
  %33 = call i32 (i8*, ...) @__isoc99_scanf(i8* getelementptr inbounds ([3 x i8], [3 x i8]* @.str.1, i64 0, i64 0), i32* %32)
  br label %34

34:                                               ; preds = %26
  %35 = load i32, i32* %12, align 4
  %36 = add nsw i32 %35, 1
  store i32 %36, i32* %12, align 4
  br label %22

37:                                               ; preds = %22
  br label %38

38:                                               ; preds = %37
  %39 = load i32, i32* %11, align 4
  %40 = add nsw i32 %39, 1
  store i32 %40, i32* %11, align 4
  br label %17

41:                                               ; preds = %17
  %42 = call i32 (i8*, ...) @__isoc99_scanf(i8* getelementptr inbounds ([5 x i8], [5 x i8]* @.str, i64 0, i64 0), i32* %6, i32* %8)
  store i32 0, i32* %11, align 4
  br label %43

43:                                               ; preds = %64, %41
  %44 = load i32, i32* %11, align 4
  %45 = load i32, i32* %6, align 4
  %46 = icmp slt i32 %44, %45
  br i1 %46, label %47, label %67

47:                                               ; preds = %43
  store i32 0, i32* %12, align 4
  br label %48

48:                                               ; preds = %60, %47
  %49 = load i32, i32* %12, align 4
  %50 = load i32, i32* %8, align 4
  %51 = icmp slt i32 %49, %50
  br i1 %51, label %52, label %63

52:                                               ; preds = %48
  %53 = load i32, i32* %11, align 4
  %54 = sext i32 %53 to i64
  %55 = getelementptr inbounds [200 x [200 x i32]], [200 x [200 x i32]]* %3, i64 0, i64 %54
  %56 = load i32, i32* %12, align 4
  %57 = sext i32 %56 to i64
  %58 = getelementptr inbounds [200 x i32], [200 x i32]* %55, i64 0, i64 %57
  %59 = call i32 (i8*, ...) @__isoc99_scanf(i8* getelementptr inbounds ([3 x i8], [3 x i8]* @.str.1, i64 0, i64 0), i32* %58)
  br label %60

60:                                               ; preds = %52
  %61 = load i32, i32* %12, align 4
  %62 = add nsw i32 %61, 1
  store i32 %62, i32* %12, align 4
  br label %48

63:                                               ; preds = %48
  br label %64

64:                                               ; preds = %63
  %65 = load i32, i32* %11, align 4
  %66 = add nsw i32 %65, 1
  store i32 %66, i32* %11, align 4
  br label %43

67:                                               ; preds = %43
  %68 = load i32, i32* %5, align 4
  store i32 %68, i32* %9, align 4
  %69 = load i32, i32* %8, align 4
  store i32 %69, i32* %10, align 4
  store i32 0, i32* %11, align 4
  br label %70

70:                                               ; preds = %116, %67
  %71 = load i32, i32* %11, align 4
  %72 = load i32, i32* %9, align 4
  %73 = icmp slt i32 %71, %72
  br i1 %73, label %74, label %119

74:                                               ; preds = %70
  store i32 0, i32* %12, align 4
  br label %75

75:                                               ; preds = %112, %74
  %76 = load i32, i32* %12, align 4
  %77 = load i32, i32* %10, align 4
  %78 = icmp slt i32 %76, %77
  br i1 %78, label %79, label %115

79:                                               ; preds = %75
  store i32 0, i32* %13, align 4
  br label %80

80:                                               ; preds = %108, %79
  %81 = load i32, i32* %13, align 4
  %82 = load i32, i32* %7, align 4
  %83 = icmp slt i32 %81, %82
  br i1 %83, label %84, label %111

84:                                               ; preds = %80
  %85 = load i32, i32* %11, align 4
  %86 = sext i32 %85 to i64
  %87 = getelementptr inbounds [200 x [200 x i32]], [200 x [200 x i32]]* %2, i64 0, i64 %86
  %88 = load i32, i32* %13, align 4
  %89 = sext i32 %88 to i64
  %90 = getelementptr inbounds [200 x i32], [200 x i32]* %87, i64 0, i64 %89
  %91 = load i32, i32* %90, align 4
  %92 = load i32, i32* %13, align 4
  %93 = sext i32 %92 to i64
  %94 = getelementptr inbounds [200 x [200 x i32]], [200 x [200 x i32]]* %3, i64 0, i64 %93
  %95 = load i32, i32* %12, align 4
  %96 = sext i32 %95 to i64
  %97 = getelementptr inbounds [200 x i32], [200 x i32]* %94, i64 0, i64 %96
  %98 = load i32, i32* %97, align 4
  %99 = mul nsw i32 %91, %98
  %100 = load i32, i32* %11, align 4
  %101 = sext i32 %100 to i64
  %102 = getelementptr inbounds [400 x [400 x i32]], [400 x [400 x i32]]* %4, i64 0, i64 %101
  %103 = load i32, i32* %12, align 4
  %104 = sext i32 %103 to i64
  %105 = getelementptr inbounds [400 x i32], [400 x i32]* %102, i64 0, i64 %104
  %106 = load i32, i32* %105, align 4
  %107 = add nsw i32 %106, %99
  store i32 %107, i32* %105, align 4
  br label %108

108:                                              ; preds = %84
  %109 = load i32, i32* %13, align 4
  %110 = add nsw i32 %109, 1
  store i32 %110, i32* %13, align 4
  br label %80

111:                                              ; preds = %80
  br label %112

112:                                              ; preds = %111
  %113 = load i32, i32* %12, align 4
  %114 = add nsw i32 %113, 1
  store i32 %114, i32* %12, align 4
  br label %75

115:                                              ; preds = %75
  br label %116

116:                                              ; preds = %115
  %117 = load i32, i32* %11, align 4
  %118 = add nsw i32 %117, 1
  store i32 %118, i32* %11, align 4
  br label %70

119:                                              ; preds = %70
  store i32 0, i32* %11, align 4
  br label %120

120:                                              ; preds = %157, %119
  %121 = load i32, i32* %11, align 4
  %122 = load i32, i32* %9, align 4
  %123 = icmp slt i32 %121, %122
  br i1 %123, label %124, label %160

124:                                              ; preds = %120
  store i32 0, i32* %12, align 4
  br label %125

125:                                              ; preds = %153, %124
  %126 = load i32, i32* %12, align 4
  %127 = load i32, i32* %10, align 4
  %128 = icmp slt i32 %126, %127
  br i1 %128, label %129, label %156

129:                                              ; preds = %125
  %130 = load i32, i32* %12, align 4
  %131 = load i32, i32* %10, align 4
  %132 = sub nsw i32 %131, 1
  %133 = icmp slt i32 %130, %132
  br i1 %133, label %134, label %143

134:                                              ; preds = %129
  %135 = load i32, i32* %11, align 4
  %136 = sext i32 %135 to i64
  %137 = getelementptr inbounds [400 x [400 x i32]], [400 x [400 x i32]]* %4, i64 0, i64 %136
  %138 = load i32, i32* %12, align 4
  %139 = sext i32 %138 to i64
  %140 = getelementptr inbounds [400 x i32], [400 x i32]* %137, i64 0, i64 %139
  %141 = load i32, i32* %140, align 4
  %142 = call i32 (i8*, ...) @printf(i8* getelementptr inbounds ([4 x i8], [4 x i8]* @.str.2, i64 0, i64 0), i32 %141)
  br label %152

143:                                              ; preds = %129
  %144 = load i32, i32* %11, align 4
  %145 = sext i32 %144 to i64
  %146 = getelementptr inbounds [400 x [400 x i32]], [400 x [400 x i32]]* %4, i64 0, i64 %145
  %147 = load i32, i32* %12, align 4
  %148 = sext i32 %147 to i64
  %149 = getelementptr inbounds [400 x i32], [400 x i32]* %146, i64 0, i64 %148
  %150 = load i32, i32* %149, align 4
  %151 = call i32 (i8*, ...) @printf(i8* getelementptr inbounds ([4 x i8], [4 x i8]* @.str.3, i64 0, i64 0), i32 %150)
  br label %152

152:                                              ; preds = %143, %134
  br label %153

153:                                              ; preds = %152
  %154 = load i32, i32* %12, align 4
  %155 = add nsw i32 %154, 1
  store i32 %155, i32* %12, align 4
  br label %125

156:                                              ; preds = %125
  br label %157

157:                                              ; preds = %156
  %158 = load i32, i32* %11, align 4
  %159 = add nsw i32 %158, 1
  store i32 %159, i32* %11, align 4
  br label %120

160:                                              ; preds = %120
  %161 = load i32, i32* %1, align 4
  ret i32 %161
}

; Function Attrs: argmemonly nounwind willreturn
declare void @llvm.memset.p0i8.i64(i8* nocapture writeonly, i8, i64, i1 immarg) #1

declare dso_local i32 @__isoc99_scanf(i8*, ...) #2

declare dso_local i32 @printf(i8*, ...) #2


!llvm.module.flags = !{!0}
!llvm.ident = !{!1}

!0 = !{i32 1, !"wchar_size", i32 4}
!1 = !{!"clang version 10.0.0-4ubuntu1 "}
